target datalayout = "e-m:e-p270:32:32-p271:32:32-p272:64:64-i64:64-i128:128-f80:128-n8:16:32:64-S128"
target triple = "x86_64-pc-linux-gnu"

%struct.TupleTableSlotOps = type { i64, ptr, ptr, ptr, ptr, ptr, ptr, ptr, ptr, ptr, ptr, ptr, ptr }
%struct.ForEachState = type { ptr, i32 }
%struct.TupleDescData = type { i32, i32, i32, i32, ptr, [0 x %struct.CompactAttribute] }
%struct.CompactAttribute = type { i32, i16, i8, i8, i8, i8, i8, i8, i8 }
%struct.List = type { i32, i32, i32, ptr, [0 x %union.ListCell] }
%union.ListCell = type { ptr }
%struct.TargetEntry = type { %struct.Expr, ptr, i16, ptr, i32, i32, i16, i8 }
%struct.Expr = type { i32 }
%struct.JunkFilter = type { i32, ptr, ptr, ptr, ptr }
%struct.Node = type { i32 }

@TTSOpsVirtual = external constant %struct.TupleTableSlotOps, align 8

; Function Attrs: inlinehint nounwind uwtable
define internal ptr @newNode(i64 noundef %0, i32 noundef %1) #4 {
  %3 = alloca i64, align 8
  %4 = alloca i32, align 4
  %5 = alloca ptr, align 8
  store i64 %0, ptr %3, align 8
  store i32 %1, ptr %4, align 4
  call void @llvm.lifetime.start.p0(i64 8, ptr %5) #6
  %6 = load i64, ptr %3, align 8
  %7 = call ptr @palloc0(i64 noundef %6)
  store ptr %7, ptr %5, align 8
  %8 = load i32, ptr %4, align 4
  %9 = load ptr, ptr %5, align 8
  %10 = getelementptr inbounds nuw %struct.Node, ptr %9, i32 0, i32 0
  store i32 %8, ptr %10, align 4
  %11 = load ptr, ptr %5, align 8
  call void @llvm.lifetime.end.p0(i64 8, ptr %5) #6
  ret ptr %11
}

; Function Attrs: nounwind uwtable
define dso_local ptr @ExecInitJunkFilter(ptr noundef %0, ptr noundef %1) #0 {
  %3 = alloca ptr, align 8
  %4 = alloca ptr, align 8
  %5 = alloca ptr, align 8
  %6 = alloca ptr, align 8
  %7 = alloca i32, align 4
  %8 = alloca ptr, align 8
  %9 = alloca i16, align 2
  %10 = alloca ptr, align 8
  %11 = alloca %struct.ForEachState, align 8
  %12 = alloca ptr, align 8
  store ptr %0, ptr %3, align 8
  store ptr %1, ptr %4, align 8
  call void @llvm.lifetime.start.p0(i64 8, ptr %5) #6
  call void @llvm.lifetime.start.p0(i64 8, ptr %6) #6
  call void @llvm.lifetime.start.p0(i64 4, ptr %7) #6
  call void @llvm.lifetime.start.p0(i64 8, ptr %8) #6
  %13 = load ptr, ptr %3, align 8
  %14 = call ptr @ExecCleanTypeFromTL(ptr noundef %13)
  store ptr %14, ptr %6, align 8
  %15 = load ptr, ptr %4, align 8
  %16 = icmp ne ptr %15, null
  br i1 %16, label %17, label %20

17:                                               ; preds = %2
  %18 = load ptr, ptr %4, align 8
  %19 = load ptr, ptr %6, align 8
  call void @ExecSetSlotDescriptor(ptr noundef %18, ptr noundef %19)
  br label %23

20:                                               ; preds = %2
  %21 = load ptr, ptr %6, align 8
  %22 = call ptr @MakeSingleTupleTableSlot(ptr noundef %21, ptr noundef @TTSOpsVirtual)
  store ptr %22, ptr %4, align 8
  br label %23

23:                                               ; preds = %20, %17
  %24 = load ptr, ptr %6, align 8
  %25 = getelementptr inbounds nuw %struct.TupleDescData, ptr %24, i32 0, i32 0
  %26 = load i32, ptr %25, align 8
  store i32 %26, ptr %7, align 4
  %27 = load i32, ptr %7, align 4
  %28 = icmp sgt i32 %27, 0
  br i1 %28, label %29, label %87

29:                                               ; preds = %23
  call void @llvm.lifetime.start.p0(i64 2, ptr %9) #6
  call void @llvm.lifetime.start.p0(i64 8, ptr %10) #6
  %30 = load i32, ptr %7, align 4
  %31 = sext i32 %30 to i64
  %32 = mul i64 %31, 2
  %33 = call ptr @palloc(i64 noundef %32)
  store ptr %33, ptr %8, align 8
  store i16 0, ptr %9, align 2
  call void @llvm.lifetime.start.p0(i64 16, ptr %11) #6
  %34 = getelementptr inbounds nuw %struct.ForEachState, ptr %11, i32 0, i32 0
  %35 = load ptr, ptr %3, align 8
  store ptr %35, ptr %34, align 8
  %36 = getelementptr inbounds nuw %struct.ForEachState, ptr %11, i32 0, i32 1
  store i32 0, ptr %36, align 8
  %37 = getelementptr i8, ptr %11, i64 12
  call void @llvm.memset.p0.i64(ptr align 4 %37, i8 0, i64 4, i1 false)
  br label %38

38:                                               ; preds = %82, %29
  %39 = getelementptr inbounds nuw %struct.ForEachState, ptr %11, i32 0, i32 0
  %40 = load ptr, ptr %39, align 8
  %41 = icmp ne ptr %40, null
  br i1 %41, label %42, label %59

42:                                               ; preds = %38
  %43 = getelementptr inbounds nuw %struct.ForEachState, ptr %11, i32 0, i32 1
  %44 = load i32, ptr %43, align 8
  %45 = getelementptr inbounds nuw %struct.ForEachState, ptr %11, i32 0, i32 0
  %46 = load ptr, ptr %45, align 8
  %47 = getelementptr inbounds nuw %struct.List, ptr %46, i32 0, i32 1
  %48 = load i32, ptr %47, align 4
  %49 = icmp slt i32 %44, %48
  br i1 %49, label %50, label %59

50:                                               ; preds = %42
  %51 = getelementptr inbounds nuw %struct.ForEachState, ptr %11, i32 0, i32 0
  %52 = load ptr, ptr %51, align 8
  %53 = getelementptr inbounds nuw %struct.List, ptr %52, i32 0, i32 3
  %54 = load ptr, ptr %53, align 8
  %55 = getelementptr inbounds nuw %struct.ForEachState, ptr %11, i32 0, i32 1
  %56 = load i32, ptr %55, align 8
  %57 = sext i32 %56 to i64
  %58 = getelementptr inbounds %union.ListCell, ptr %54, i64 %57
  store ptr %58, ptr %10, align 8
  br label %60

59:                                               ; preds = %42, %38
  store ptr null, ptr %10, align 8
  br label %60

60:                                               ; preds = %59, %50
  %61 = phi i32 [ 1, %50 ], [ 0, %59 ]
  %62 = icmp ne i32 %61, 0
  br i1 %62, label %64, label %63

63:                                               ; preds = %60
  call void @llvm.lifetime.end.p0(i64 16, ptr %11) #6
  br label %86

64:                                               ; preds = %60
  call void @llvm.lifetime.start.p0(i64 8, ptr %12) #6
  %65 = load ptr, ptr %10, align 8
  %66 = load ptr, ptr %65, align 8
  store ptr %66, ptr %12, align 8
  %67 = load ptr, ptr %12, align 8
  %68 = getelementptr inbounds nuw %struct.TargetEntry, ptr %67, i32 0, i32 7
  %69 = load i8, ptr %68, align 2, !range !4, !noundef !5
  %70 = trunc i8 %69 to i1
  br i1 %70, label %81, label %71

71:                                               ; preds = %64
  %72 = load ptr, ptr %12, align 8
  %73 = getelementptr inbounds nuw %struct.TargetEntry, ptr %72, i32 0, i32 2
  %74 = load i16, ptr %73, align 8
  %75 = load ptr, ptr %8, align 8
  %76 = load i16, ptr %9, align 2
  %77 = sext i16 %76 to i64
  %78 = getelementptr inbounds i16, ptr %75, i64 %77
  store i16 %74, ptr %78, align 2
  %79 = load i16, ptr %9, align 2
  %80 = add i16 %79, 1
  store i16 %80, ptr %9, align 2
  br label %81

81:                                               ; preds = %71, %64
  call void @llvm.lifetime.end.p0(i64 8, ptr %12) #6
  br label %82

82:                                               ; preds = %81
  %83 = getelementptr inbounds nuw %struct.ForEachState, ptr %11, i32 0, i32 1
  %84 = load i32, ptr %83, align 8
  %85 = add i32 %84, 1
  store i32 %85, ptr %83, align 8
  br label %38, !llvm.loop !6

86:                                               ; preds = %63
  call void @llvm.lifetime.end.p0(i64 8, ptr %10) #6
  call void @llvm.lifetime.end.p0(i64 2, ptr %9) #6
  br label %88

87:                                               ; preds = %23
  store ptr null, ptr %8, align 8
  br label %88

88:                                               ; preds = %87, %86
  %89 = call ptr @newNode(i64 noundef 40, i32 noundef 384)
  store ptr %89, ptr %5, align 8
  %90 = load ptr, ptr %3, align 8
  %91 = load ptr, ptr %5, align 8
  %92 = getelementptr inbounds nuw %struct.JunkFilter, ptr %91, i32 0, i32 1
  store ptr %90, ptr %92, align 8
  %93 = load ptr, ptr %6, align 8
  %94 = load ptr, ptr %5, align 8
  %95 = getelementptr inbounds nuw %struct.JunkFilter, ptr %94, i32 0, i32 2
  store ptr %93, ptr %95, align 8
  %96 = load ptr, ptr %8, align 8
  %97 = load ptr, ptr %5, align 8
  %98 = getelementptr inbounds nuw %struct.JunkFilter, ptr %97, i32 0, i32 3
  store ptr %96, ptr %98, align 8
  %99 = load ptr, ptr %4, align 8
  %100 = load ptr, ptr %5, align 8
  %101 = getelementptr inbounds nuw %struct.JunkFilter, ptr %100, i32 0, i32 4
  store ptr %99, ptr %101, align 8
  %102 = load ptr, ptr %5, align 8
  call void @llvm.lifetime.end.p0(i64 8, ptr %8) #6
  call void @llvm.lifetime.end.p0(i64 4, ptr %7) #6
  call void @llvm.lifetime.end.p0(i64 8, ptr %6) #6
  call void @llvm.lifetime.end.p0(i64 8, ptr %5) #6
  ret ptr %102
}