; Function Attrs: nounwind uwtable
define dso_local noundef ptr @ExecInitJunkFilter(ptr noundef %0, ptr noundef %1) local_unnamed_addr #0 {
  %3 = tail call ptr @ExecCleanTypeFromTL(ptr noundef %0) #4
  %.not = icmp eq ptr %1, null
  br i1 %.not, label %5, label %4

4:                                                ; preds = %2
  tail call void @ExecSetSlotDescriptor(ptr noundef nonnull %1, ptr noundef %3) #4
  br label %7

5:                                                ; preds = %2
  %6 = tail call ptr @MakeSingleTupleTableSlot(ptr noundef %3, ptr noundef nonnull @TTSOpsVirtual) #4
  br label %7

7:                                                ; preds = %5, %4
  %.0 = phi ptr [ %1, %4 ], [ %6, %5 ]
  %8 = load i32, ptr %3, align 8
  %9 = icmp sgt i32 %8, 0
  br i1 %9, label %10, label %.thread

10:                                               ; preds = %7
  %11 = shl nuw i32 %8, 1
  %12 = zext i32 %11 to i64
  %13 = tail call ptr @palloc(i64 noundef %12) #4
  %14 = getelementptr inbounds nuw i8, ptr %0, i64 4
  %.not33 = icmp eq ptr %0, null
  br i1 %.not33, label %.thread, label %.lr.ph

.lr.ph:                                           ; preds = %10
  %15 = getelementptr inbounds nuw i8, ptr %0, i64 16
  %16 = load i32, ptr %14, align 4
  %17 = icmp sgt i32 %16, 0
  br i1 %17, label %.lr.ph42, label %.thread

.lr.ph42:                                         ; preds = %.lr.ph, %31
  %18 = phi i32 [ %32, %31 ], [ %16, %.lr.ph ]
  %indvars.iv = phi i64 [ %indvars.iv.next, %31 ], [ 0, %.lr.ph ]
  %.0283741 = phi i16 [ %.1, %31 ], [ 0, %.lr.ph ]
  %19 = load ptr, ptr %15, align 8
  %20 = getelementptr inbounds nuw %union.ListCell, ptr %19, i64 %indvars.iv
  %21 = load ptr, ptr %20, align 8
  %22 = getelementptr inbounds nuw i8, ptr %21, i64 42
  %23 = load i8, ptr %22, align 2, !range !4, !noundef !5
  %24 = trunc nuw i8 %23 to i1
  br i1 %24, label %31, label %25

25:                                               ; preds = %.lr.ph42
  %26 = getelementptr inbounds nuw i8, ptr %21, i64 16
  %27 = load i16, ptr %26, align 8
  %28 = sext i16 %.0283741 to i64
  %29 = getelementptr inbounds i16, ptr %13, i64 %28
  store i16 %27, ptr %29, align 2
  %30 = add i16 %.0283741, 1
  %.pre = load i32, ptr %14, align 4
  br label %31

31:                                               ; preds = %25, %.lr.ph42
  %32 = phi i32 [ %18, %.lr.ph42 ], [ %.pre, %25 ]
  %.1 = phi i16 [ %.0283741, %.lr.ph42 ], [ %30, %25 ]
  %indvars.iv.next = add nuw nsw i64 %indvars.iv, 1
  %33 = sext i32 %32 to i64
  %34 = icmp slt i64 %indvars.iv.next, %33
  br i1 %34, label %.lr.ph42, label %.thread

.thread:                                          ; preds = %31, %10, %.lr.ph, %7
  %.027 = phi ptr [ null, %7 ], [ %13, %.lr.ph ], [ %13, %10 ], [ %13, %31 ]
  %35 = tail call noundef ptr @palloc0(i64 noundef 40) #4
  store i32 384, ptr %35, align 4
  %36 = getelementptr inbounds nuw i8, ptr %35, i64 8
  store ptr %0, ptr %36, align 8
  %37 = getelementptr inbounds nuw i8, ptr %35, i64 16
  store ptr %3, ptr %37, align 8
  %38 = getelementptr inbounds nuw i8, ptr %35, i64 24
  store ptr %.027, ptr %38, align 8
  %39 = getelementptr inbounds nuw i8, ptr %35, i64 32
  store ptr %.0, ptr %39, align 8
  ret ptr %35
}